; Function Attrs: nofree norecurse nosync nounwind uwtable
define range(i64 0, 4294967296) i64 @zfp_decode_partial_block_strided_int32_2(ptr noundef readonly captures(none) %0, ptr noundef writeonly captures(none) %1, i64 noundef %2, i64 noundef %3, i64 noundef %4, i64 noundef %5) local_unnamed_addr #0 {
  %7 = alloca [16 x i32], align 256
  call void @llvm.lifetime.start.p0(i64 64, ptr nonnull %7) #6
  %8 = call i64 @zfp_decode_block_int32_2(ptr noundef %0, ptr noundef nonnull %7)
  %.not.i = icmp eq i64 %3, 0
  br i1 %.not.i, label %scatter_partial_int32_2.exit, label %.preheader.lr.ph.i

.preheader.lr.ph.i:                               ; preds = %6
  %.not29.i = icmp eq i64 %2, 0
  %9 = mul nsw i64 %4, %2
  %10 = sub nsw i64 %5, %9
  %11 = sub i64 4, %2
  br i1 %.not29.i, label %scatter_partial_int32_2.exit, label %.preheader.us.i

.preheader.us.i:                                  ; preds = %.preheader.lr.ph.i, %._crit_edge.us.i
  %.027.us.i = phi i64 [ %17, %._crit_edge.us.i ], [ 0, %.preheader.lr.ph.i ]
  %.01726.us.i = phi ptr [ %19, %._crit_edge.us.i ], [ %7, %.preheader.lr.ph.i ]
  %.01825.us.i = phi ptr [ %18, %._crit_edge.us.i ], [ %1, %.preheader.lr.ph.i ]
  br label %12

12:                                               ; preds = %12, %.preheader.us.i
  %.01623.us.i = phi i64 [ 0, %.preheader.us.i ], [ %14, %12 ]
  %.122.us.i = phi ptr [ %.01726.us.i, %.preheader.us.i ], [ %16, %12 ]
  %.11921.us.i = phi ptr [ %.01825.us.i, %.preheader.us.i ], [ %15, %12 ]
  %13 = load i32, ptr %.122.us.i, align 4, !tbaa !23
  store i32 %13, ptr %.11921.us.i, align 4, !tbaa !23
  %14 = add nuw i64 %.01623.us.i, 1
  %15 = getelementptr inbounds i32, ptr %.11921.us.i, i64 %4
  %16 = getelementptr inbounds nuw i8, ptr %.122.us.i, i64 4
  %exitcond.not.i = icmp eq i64 %14, %2
  br i1 %exitcond.not.i, label %._crit_edge.us.i, label %12

._crit_edge.us.i:                                 ; preds = %12
  %17 = add nuw i64 %.027.us.i, 1
  %18 = getelementptr inbounds i32, ptr %15, i64 %10
  %19 = getelementptr inbounds nuw i32, ptr %16, i64 %11
  %exitcond32.not.i = icmp eq i64 %17, %3
  br i1 %exitcond32.not.i, label %scatter_partial_int32_2.exit, label %.preheader.us.i

scatter_partial_int32_2.exit:                     ; preds = %._crit_edge.us.i, %6, %.preheader.lr.ph.i
  call void @llvm.lifetime.end.p0(i64 64, ptr nonnull %7) #6
  ret i64 %8
}